target datalayout = "e-m:e-p270:32:32-p271:32:32-p272:64:64-i64:64-i128:128-f80:128-n8:16:32:64-S128"
target triple = "x86_64-pc-linux-gnu"

%struct.DdNode = type { i32, i32, ptr, %union.anon, i64 }
%union.anon = type { %struct.DdChildren }
%struct.DdChildren = type { ptr, ptr }
%struct.DdHashTable = type { i32, i32, ptr, ptr, ptr, i32, i32, i32, i32, ptr }
%struct.DdHashItem = type { ptr, i64, ptr, [1 x ptr] }

; Function Attrs: nounwind uwtable
define ptr @cuddHashTableLookup2(ptr noundef %0, ptr noundef %1, ptr noundef %2) #0 {
  %4 = alloca ptr, align 8
  %5 = alloca ptr, align 8
  %6 = alloca ptr, align 8
  %7 = alloca ptr, align 8
  %8 = alloca i32, align 4
  %9 = alloca ptr, align 8
  %10 = alloca ptr, align 8
  %11 = alloca ptr, align 8
  %12 = alloca ptr, align 8
  %13 = alloca i32, align 4
  store ptr %0, ptr %5, align 8, !tbaa !62
  store ptr %1, ptr %6, align 8, !tbaa !50
  store ptr %2, ptr %7, align 8, !tbaa !50
  call void @llvm.lifetime.start.p0(i64 4, ptr %8) #10
  call void @llvm.lifetime.start.p0(i64 8, ptr %9) #10
  call void @llvm.lifetime.start.p0(i64 8, ptr %10) #10
  %14 = load ptr, ptr %6, align 8, !tbaa !50
  %15 = ptrtoint ptr %14 to i64
  %16 = and i64 %15, -2
  %17 = inttoptr i64 %16 to ptr
  %18 = getelementptr inbounds nuw %struct.DdNode, ptr %17, i32 0, i32 4
  %19 = load i64, ptr %18, align 8, !tbaa !88
  %20 = shl i64 %19, 1
  %21 = load ptr, ptr %6, align 8, !tbaa !50
  %22 = ptrtoint ptr %21 to i64
  %23 = and i64 %22, 1
  %24 = trunc i64 %23 to i32
  %25 = sext i32 %24 to i64
  %26 = or i64 %20, %25
  %27 = trunc i64 %26 to i32
  %28 = mul i32 %27, 12582917
  %29 = load ptr, ptr %7, align 8, !tbaa !50
  %30 = ptrtoint ptr %29 to i64
  %31 = and i64 %30, -2
  %32 = inttoptr i64 %31 to ptr
  %33 = getelementptr inbounds nuw %struct.DdNode, ptr %32, i32 0, i32 4
  %34 = load i64, ptr %33, align 8, !tbaa !88
  %35 = shl i64 %34, 1
  %36 = load ptr, ptr %7, align 8, !tbaa !50
  %37 = ptrtoint ptr %36 to i64
  %38 = and i64 %37, 1
  %39 = trunc i64 %38 to i32
  %40 = sext i32 %39 to i64
  %41 = or i64 %35, %40
  %42 = trunc i64 %41 to i32
  %43 = add i32 %28, %42
  %44 = mul i32 %43, 4256249
  %45 = load ptr, ptr %5, align 8, !tbaa !62
  %46 = getelementptr inbounds nuw %struct.DdHashTable, ptr %45, i32 0, i32 6
  %47 = load i32, ptr %46, align 4, !tbaa !73
  %48 = lshr i32 %44, %47
  store i32 %48, ptr %8, align 4, !tbaa !8
  %49 = load ptr, ptr %5, align 8, !tbaa !62
  %50 = getelementptr inbounds nuw %struct.DdHashTable, ptr %49, i32 0, i32 2
  %51 = load ptr, ptr %50, align 8, !tbaa !74
  %52 = load i32, ptr %8, align 4, !tbaa !8
  %53 = zext i32 %52 to i64
  %54 = getelementptr inbounds nuw ptr, ptr %51, i64 %53
  %55 = load ptr, ptr %54, align 8, !tbaa !77
  store ptr %55, ptr %9, align 8, !tbaa !77
  store ptr null, ptr %10, align 8, !tbaa !77
  br label %56

56:                                               ; preds = %134, %3
  %57 = load ptr, ptr %9, align 8, !tbaa !77
  %58 = icmp ne ptr %57, null
  br i1 %58, label %59, label %135

59:                                               ; preds = %56
  call void @llvm.lifetime.start.p0(i64 8, ptr %11) #10
  %60 = load ptr, ptr %9, align 8, !tbaa !77
  %61 = getelementptr inbounds nuw %struct.DdHashItem, ptr %60, i32 0, i32 3
  %62 = getelementptr inbounds [1 x ptr], ptr %61, i64 0, i64 0
  store ptr %62, ptr %11, align 8, !tbaa !49
  %63 = load ptr, ptr %6, align 8, !tbaa !50
  %64 = load ptr, ptr %11, align 8, !tbaa !49
  %65 = getelementptr inbounds ptr, ptr %64, i64 0
  %66 = load ptr, ptr %65, align 8, !tbaa !50
  %67 = icmp eq ptr %63, %66
  br i1 %67, label %68, label %127

68:                                               ; preds = %59
  %69 = load ptr, ptr %7, align 8, !tbaa !50
  %70 = load ptr, ptr %11, align 8, !tbaa !49
  %71 = getelementptr inbounds ptr, ptr %70, i64 1
  %72 = load ptr, ptr %71, align 8, !tbaa !50
  %73 = icmp eq ptr %69, %72
  br i1 %73, label %74, label %127

74:                                               ; preds = %68
  call void @llvm.lifetime.start.p0(i64 8, ptr %12) #10
  %75 = load ptr, ptr %9, align 8, !tbaa !77
  %76 = getelementptr inbounds nuw %struct.DdHashItem, ptr %75, i32 0, i32 2
  %77 = load ptr, ptr %76, align 8, !tbaa !78
  store ptr %77, ptr %12, align 8, !tbaa !50
  %78 = load ptr, ptr %9, align 8, !tbaa !77
  %79 = getelementptr inbounds nuw %struct.DdHashItem, ptr %78, i32 0, i32 1
  %80 = load i64, ptr %79, align 8, !tbaa !86
  %81 = add nsw i64 %80, -1
  store i64 %81, ptr %79, align 8, !tbaa !86
  %82 = load ptr, ptr %9, align 8, !tbaa !77
  %83 = getelementptr inbounds nuw %struct.DdHashItem, ptr %82, i32 0, i32 1
  %84 = load i64, ptr %83, align 8, !tbaa !86
  %85 = icmp eq i64 %84, 0
  br i1 %85, label %86, label %125

86:                                               ; preds = %74
  %87 = load ptr, ptr %12, align 8, !tbaa !50
  %88 = ptrtoint ptr %87 to i64
  %89 = and i64 %88, -2
  %90 = inttoptr i64 %89 to ptr
  %91 = getelementptr inbounds nuw %struct.DdNode, ptr %90, i32 0, i32 1
  %92 = load i32, ptr %91, align 4, !tbaa !55
  %93 = add i32 %92, -1
  store i32 %93, ptr %91, align 4, !tbaa !55
  %94 = load ptr, ptr %10, align 8, !tbaa !77
  %95 = icmp eq ptr %94, null
  br i1 %95, label %96, label %106

96:                                               ; preds = %86
  %97 = load ptr, ptr %9, align 8, !tbaa !77
  %98 = getelementptr inbounds nuw %struct.DdHashItem, ptr %97, i32 0, i32 0
  %99 = load ptr, ptr %98, align 8, !tbaa !80
  %100 = load ptr, ptr %5, align 8, !tbaa !62
  %101 = getelementptr inbounds nuw %struct.DdHashTable, ptr %100, i32 0, i32 2
  %102 = load ptr, ptr %101, align 8, !tbaa !74
  %103 = load i32, ptr %8, align 4, !tbaa !8
  %104 = zext i32 %103 to i64
  %105 = getelementptr inbounds nuw ptr, ptr %102, i64 %104
  store ptr %99, ptr %105, align 8, !tbaa !77
  br label %112

106:                                              ; preds = %86
  %107 = load ptr, ptr %9, align 8, !tbaa !77
  %108 = getelementptr inbounds nuw %struct.DdHashItem, ptr %107, i32 0, i32 0
  %109 = load ptr, ptr %108, align 8, !tbaa !80
  %110 = load ptr, ptr %10, align 8, !tbaa !77
  %111 = getelementptr inbounds nuw %struct.DdHashItem, ptr %110, i32 0, i32 0
  store ptr %109, ptr %111, align 8, !tbaa !80
  br label %112

112:                                              ; preds = %106, %96
  %113 = load ptr, ptr %5, align 8, !tbaa !62
  %114 = getelementptr inbounds nuw %struct.DdHashTable, ptr %113, i32 0, i32 3
  %115 = load ptr, ptr %114, align 8, !tbaa !70
  %116 = load ptr, ptr %9, align 8, !tbaa !77
  %117 = getelementptr inbounds nuw %struct.DdHashItem, ptr %116, i32 0, i32 0
  store ptr %115, ptr %117, align 8, !tbaa !80
  %118 = load ptr, ptr %9, align 8, !tbaa !77
  %119 = load ptr, ptr %5, align 8, !tbaa !62
  %120 = getelementptr inbounds nuw %struct.DdHashTable, ptr %119, i32 0, i32 3
  store ptr %118, ptr %120, align 8, !tbaa !70
  %121 = load ptr, ptr %5, align 8, !tbaa !62
  %122 = getelementptr inbounds nuw %struct.DdHashTable, ptr %121, i32 0, i32 7
  %123 = load i32, ptr %122, align 8, !tbaa !75
  %124 = add i32 %123, -1
  store i32 %124, ptr %122, align 8, !tbaa !75
  br label %125

125:                                              ; preds = %112, %74
  %126 = load ptr, ptr %12, align 8, !tbaa !50
  store ptr %126, ptr %4, align 8
  store i32 1, ptr %13, align 4
  call void @llvm.lifetime.end.p0(i64 8, ptr %12) #10
  br label %132

127:                                              ; preds = %68, %59
  %128 = load ptr, ptr %9, align 8, !tbaa !77
  store ptr %128, ptr %10, align 8, !tbaa !77
  %129 = load ptr, ptr %9, align 8, !tbaa !77
  %130 = getelementptr inbounds nuw %struct.DdHashItem, ptr %129, i32 0, i32 0
  %131 = load ptr, ptr %130, align 8, !tbaa !80
  store ptr %131, ptr %9, align 8, !tbaa !77
  store i32 0, ptr %13, align 4
  br label %132

132:                                              ; preds = %127, %125
  call void @llvm.lifetime.end.p0(i64 8, ptr %11) #10
  %133 = load i32, ptr %13, align 4
  switch i32 %133, label %136 [
    i32 0, label %134
  ]

134:                                              ; preds = %132
  br label %56, !llvm.loop !111

135:                                              ; preds = %56
  store ptr null, ptr %4, align 8
  store i32 1, ptr %13, align 4
  br label %136

136:                                              ; preds = %135, %132
  call void @llvm.lifetime.end.p0(i64 8, ptr %10) #10
  call void @llvm.lifetime.end.p0(i64 8, ptr %9) #10
  call void @llvm.lifetime.end.p0(i64 4, ptr %8) #10
  %137 = load ptr, ptr %4, align 8
  ret ptr %137
}