; Function Attrs: nofree norecurse nosync nounwind memory(readwrite, inaccessiblemem: none) uwtable
define ptr @cuddHashTableLookup2(ptr noundef captures(none) %0, ptr noundef %1, ptr noundef %2) local_unnamed_addr #6 {
  %4 = ptrtoint ptr %1 to i64
  %5 = and i64 %4, -2
  %6 = inttoptr i64 %5 to ptr
  %7 = getelementptr inbounds nuw i8, ptr %6, i64 32
  %8 = load i64, ptr %7, align 8, !tbaa !79
  %9 = shl i64 %8, 1
  %10 = and i64 %4, 1
  %11 = or disjoint i64 %9, %10
  %12 = trunc i64 %11 to i32
  %13 = mul i32 %12, 12582917
  %14 = ptrtoint ptr %2 to i64
  %15 = and i64 %14, -2
  %16 = inttoptr i64 %15 to ptr
  %17 = getelementptr inbounds nuw i8, ptr %16, i64 32
  %18 = load i64, ptr %17, align 8, !tbaa !79
  %19 = shl i64 %18, 1
  %20 = and i64 %14, 1
  %21 = or disjoint i64 %19, %20
  %22 = trunc i64 %21 to i32
  %23 = add i32 %13, %22
  %24 = mul i32 %23, 4256249
  %25 = getelementptr inbounds nuw i8, ptr %0, i64 36
  %26 = load i32, ptr %25, align 4, !tbaa !63
  %27 = lshr i32 %24, %26
  %28 = getelementptr inbounds nuw i8, ptr %0, i64 8
  %29 = load ptr, ptr %28, align 8, !tbaa !64
  %30 = zext i32 %27 to i64
  %31 = getelementptr inbounds nuw ptr, ptr %29, i64 %30
  %.03343 = load ptr, ptr %31, align 8, !tbaa !67
  %.not44 = icmp eq ptr %.03343, null
  br i1 %.not44, label %.thread, label %.lr.ph

.lr.ph:                                           ; preds = %3, %63
  %.03346 = phi ptr [ %.033, %63 ], [ %.03343, %3 ]
  %.03545 = phi ptr [ %.03346, %63 ], [ null, %3 ]
  %32 = getelementptr inbounds nuw i8, ptr %.03346, i64 24
  %33 = load ptr, ptr %32, align 8, !tbaa !45
  %34 = icmp eq ptr %1, %33
  br i1 %34, label %35, label %63

35:                                               ; preds = %.lr.ph
  %36 = getelementptr inbounds nuw i8, ptr %.03346, i64 32
  %37 = load ptr, ptr %36, align 8, !tbaa !45
  %38 = icmp eq ptr %2, %37
  br i1 %38, label %39, label %63

39:                                               ; preds = %35
  %40 = getelementptr inbounds nuw i8, ptr %.03346, i64 16
  %41 = load ptr, ptr %40, align 8, !tbaa !68
  %42 = getelementptr inbounds nuw i8, ptr %.03346, i64 8
  %43 = load i64, ptr %42, align 8, !tbaa !74
  %44 = add nsw i64 %43, -1
  store i64 %44, ptr %42, align 8, !tbaa !74
  %45 = icmp eq i64 %44, 0
  br i1 %45, label %46, label %.thread

46:                                               ; preds = %39
  %47 = ptrtoint ptr %41 to i64
  %48 = and i64 %47, -2
  %49 = inttoptr i64 %48 to ptr
  %50 = getelementptr inbounds nuw i8, ptr %49, i64 4
  %51 = load i32, ptr %50, align 4, !tbaa !49
  %52 = add i32 %51, -1
  store i32 %52, ptr %50, align 4, !tbaa !49
  %53 = icmp eq ptr %.03545, null
  %54 = load ptr, ptr %.03346, align 8, !tbaa !76
  br i1 %53, label %55, label %56

55:                                               ; preds = %46
  store ptr %54, ptr %31, align 8, !tbaa !67
  br label %57

56:                                               ; preds = %46
  store ptr %54, ptr %.03545, align 8, !tbaa !76
  br label %57

57:                                               ; preds = %56, %55
  %58 = getelementptr inbounds nuw i8, ptr %0, i64 16
  %59 = load ptr, ptr %58, align 8, !tbaa !86
  store ptr %59, ptr %.03346, align 8, !tbaa !76
  store ptr %.03346, ptr %58, align 8, !tbaa !86
  %60 = getelementptr inbounds nuw i8, ptr %0, i64 40
  %61 = load i32, ptr %60, align 8, !tbaa !65
  %62 = add i32 %61, -1
  store i32 %62, ptr %60, align 8, !tbaa !65
  br label %.thread

63:                                               ; preds = %.lr.ph, %35
  %.033 = load ptr, ptr %.03346, align 8, !tbaa !67
  %.not = icmp eq ptr %.033, null
  br i1 %.not, label %.thread, label %.lr.ph, !llvm.loop !99

.thread:                                          ; preds = %63, %3, %39, %57
  %.2 = phi ptr [ %41, %57 ], [ %41, %39 ], [ null, %3 ], [ null, %63 ]
  ret ptr %.2
}